; Function Attrs: nofree norecurse nosync nounwind memory(readwrite, inaccessiblemem: none) uwtable
define dso_local ptr @cb_insert(ptr noundef captures(none) %0, ptr noundef %1, i64 noundef %2) local_unnamed_addr #0 {
  %4 = load ptr, ptr %0, align 8, !tbaa !4
  %.not = icmp eq ptr %4, null
  br i1 %.not, label %5, label %6

5:                                                ; preds = %3
  store ptr %1, ptr %0, align 8, !tbaa !4
  br label %.loopexit

6:                                                ; preds = %3
  %7 = getelementptr inbounds nuw i8, ptr %1, i64 21
  %8 = ptrtoint ptr %4 to i64
  %9 = and i64 %8, 1
  %.not11.i = icmp eq i64 %9, 0
  br i1 %.not11.i, label %cb_internal_best_match.exit, label %.lr.ph.i

.lr.ph.i:                                         ; preds = %6, %21
  %10 = phi i64 [ %31, %21 ], [ %8, %6 ]
  %11 = add nsw i64 %10, -1
  %12 = inttoptr i64 %11 to ptr
  %13 = getelementptr inbounds nuw i8, ptr %12, i64 16
  %14 = load i32, ptr %13, align 8, !tbaa !10
  %15 = zext i32 %14 to i64
  %16 = icmp ugt i64 %2, %15
  br i1 %16, label %17, label %21

17:                                               ; preds = %.lr.ph.i
  %18 = getelementptr inbounds nuw i8, ptr %7, i64 %15
  %19 = load i8, ptr %18, align 1, !tbaa !12
  %20 = zext i8 %19 to i64
  br label %21

21:                                               ; preds = %17, %.lr.ph.i
  %22 = phi i64 [ %20, %17 ], [ 0, %.lr.ph.i ]
  %23 = getelementptr inbounds nuw i8, ptr %12, i64 20
  %24 = load i8, ptr %23, align 4, !tbaa !12
  %25 = zext i8 %24 to i64
  %26 = or i64 %22, %25
  %27 = add nuw nsw i64 %26, 1
  %28 = lshr i64 %27, 8
  %29 = getelementptr inbounds nuw [2 x ptr], ptr %12, i64 0, i64 %28
  %30 = load ptr, ptr %29, align 8, !tbaa !13
  %31 = ptrtoint ptr %30 to i64
  %32 = and i64 %31, 1
  %.not.i = icmp eq i64 %32, 0
  br i1 %.not.i, label %cb_internal_best_match.exit, label %.lr.ph.i, !llvm.loop !14

cb_internal_best_match.exit:                      ; preds = %21, %6
  %.0.lcssa.i = phi ptr [ %4, %6 ], [ %30, %21 ]
  %.not88 = icmp eq i64 %2, 0
  br i1 %.not88, label %.loopexit, label %.lr.ph

.lr.ph:                                           ; preds = %cb_internal_best_match.exit
  %33 = getelementptr inbounds nuw i8, ptr %.0.lcssa.i, i64 21
  br label %34

34:                                               ; preds = %.lr.ph, %39
  %.06180 = phi i64 [ 0, %.lr.ph ], [ %40, %39 ]
  %35 = getelementptr inbounds nuw [0 x i8], ptr %33, i64 0, i64 %.06180
  %36 = load i8, ptr %35, align 1, !tbaa !12
  %37 = getelementptr inbounds nuw [0 x i8], ptr %7, i64 0, i64 %.06180
  %38 = load i8, ptr %37, align 1, !tbaa !12
  %.not70 = icmp eq i8 %36, %38
  br i1 %.not70, label %39, label %41

39:                                               ; preds = %34
  %40 = add nuw i64 %.06180, 1
  %exitcond.not = icmp eq i64 %40, %2
  br i1 %exitcond.not, label %.loopexit, label %34, !llvm.loop !16

41:                                               ; preds = %34
  %42 = xor i8 %38, %36
  %43 = zext i8 %42 to i64
  %44 = lshr i64 %43, 1
  %45 = or i64 %44, %43
  %46 = lshr i64 %45, 2
  %47 = or i64 %46, %45
  %48 = lshr i64 %47, 4
  %49 = or i64 %48, %47
  %50 = lshr i64 %49, 1
  %51 = xor i64 %50, -1
  %52 = and i64 %49, %51
  %53 = xor i64 %52, 255
  %54 = zext i8 %36 to i64
  %55 = or i64 %53, %54
  %56 = trunc i64 %.06180 to i32
  %57 = getelementptr inbounds nuw i8, ptr %1, i64 16
  store i32 %56, ptr %57, align 8, !tbaa !10
  %58 = trunc nuw i64 %53 to i8
  %59 = getelementptr inbounds nuw i8, ptr %1, i64 20
  store i8 %58, ptr %59, align 4, !tbaa !12
  %60 = shl nuw nsw i64 %55, 24
  %61 = add nuw nsw i64 %60, 16777216
  %62 = and i64 %61, 9223372032559808512
  %sext = sub nuw nsw i64 4294967296, %62
  %63 = lshr exact i64 %sext, 32
  %64 = getelementptr inbounds nuw [2 x ptr], ptr %1, i64 0, i64 %63
  store ptr %1, ptr %64, align 8, !tbaa !13
  %65 = load ptr, ptr %0, align 8, !tbaa !13
  %66 = ptrtoint ptr %65 to i64
  %67 = and i64 %66, 1
  %.not7181 = icmp eq i64 %67, 0
  br i1 %.not7181, label %._crit_edge, label %.lr.ph83.preheader

.lr.ph83.preheader:                               ; preds = %41
  %68 = add nsw i64 %66, -1
  %69 = inttoptr i64 %68 to ptr
  %70 = getelementptr inbounds nuw i8, ptr %69, i64 16
  %71 = load i32, ptr %70, align 8, !tbaa !10
  %72 = zext i32 %71 to i64
  %73 = icmp ult i64 %.06180, %72
  br i1 %73, label %._crit_edge, label %.lr.ph107

.lr.ph83:                                         ; preds = %._crit_edge94
  %74 = add nsw i64 %96, -1
  %75 = inttoptr i64 %74 to ptr
  %76 = getelementptr inbounds nuw i8, ptr %75, i64 16
  %77 = load i32, ptr %76, align 8, !tbaa !10
  %78 = zext i32 %77 to i64
  %79 = icmp ult i64 %.06180, %78
  br i1 %79, label %._crit_edge, label %.lr.ph107

.lr.ph107:                                        ; preds = %.lr.ph83.preheader, %.lr.ph83
  %80 = phi i64 [ %78, %.lr.ph83 ], [ %72, %.lr.ph83.preheader ]
  %81 = phi ptr [ %75, %.lr.ph83 ], [ %69, %.lr.ph83.preheader ]
  %.06382106 = phi ptr [ %94, %.lr.ph83 ], [ %0, %.lr.ph83.preheader ]
  %82 = phi ptr [ %95, %.lr.ph83 ], [ %65, %.lr.ph83.preheader ]
  %83 = icmp eq i64 %.06180, %80
  %84 = getelementptr inbounds nuw i8, ptr %81, i64 20
  %85 = load i8, ptr %84, align 4, !tbaa !12
  %86 = zext i8 %85 to i64
  %87 = icmp samesign ult i64 %53, %86
  %or.cond = select i1 %83, i1 %87, i1 false
  br i1 %or.cond, label %._crit_edge, label %._crit_edge94

._crit_edge94:                                    ; preds = %.lr.ph107
  %88 = getelementptr inbounds nuw [0 x i8], ptr %7, i64 0, i64 %80
  %89 = load i8, ptr %88, align 1, !tbaa !12
  %90 = or i8 %85, %89
  %91 = zext i8 %90 to i64
  %92 = add nuw nsw i64 %91, 1
  %93 = lshr i64 %92, 8
  %94 = getelementptr inbounds nuw ptr, ptr %81, i64 %93
  %95 = load ptr, ptr %94, align 8, !tbaa !13
  %96 = ptrtoint ptr %95 to i64
  %97 = and i64 %96, 1
  %.not71 = icmp eq i64 %97, 0
  br i1 %.not71, label %._crit_edge, label %.lr.ph83

._crit_edge:                                      ; preds = %.lr.ph107, %._crit_edge94, %.lr.ph83, %.lr.ph83.preheader, %41
  %98 = phi ptr [ %65, %41 ], [ %65, %.lr.ph83.preheader ], [ %95, %.lr.ph83 ], [ %95, %._crit_edge94 ], [ %82, %.lr.ph107 ]
  %.063.lcssa = phi ptr [ %0, %41 ], [ %0, %.lr.ph83.preheader ], [ %94, %.lr.ph83 ], [ %94, %._crit_edge94 ], [ %.06382106, %.lr.ph107 ]
  %99 = lshr i64 %61, 32
  %100 = getelementptr inbounds nuw [2 x ptr], ptr %1, i64 0, i64 %99
  store ptr %98, ptr %100, align 8, !tbaa !13
  %101 = ptrtoint ptr %1 to i64
  %102 = add i64 %101, 1
  %103 = inttoptr i64 %102 to ptr
  store ptr %103, ptr %.063.lcssa, align 8, !tbaa !13
  br label %.loopexit

.loopexit:                                        ; preds = %39, %cb_internal_best_match.exit, %._crit_edge, %5
  %.0 = phi ptr [ null, %._crit_edge ], [ null, %5 ], [ %.0.lcssa.i, %cb_internal_best_match.exit ], [ %.0.lcssa.i, %39 ]
  ret ptr %.0
}